target datalayout = "e-m:e-p270:32:32-p271:32:32-p272:64:64-i64:64-i128:128-f80:128-n8:16:32:64-S128"
target triple = "x86_64-pc-linux-gnu"

%struct.tjscalingfactor = type { i32, i32 }
%struct.tjregion = type { i32, i32, i32, i32 }
%struct._tjinstance = type { %struct.jpeg_compress_struct, %struct.jpeg_decompress_struct, %struct.my_error_mgr, i32, [200 x i8], i32, i32, i32, i32, i32, i32, i32, i32, i32, i32, i32, i32, i32, i32, i32, i32, i32, i32, i32, i32, i32, i32, i32, %struct.tjscalingfactor, %struct.tjregion, i32, i32 }
%struct.jpeg_compress_struct = type { ptr, ptr, ptr, ptr, i32, i32, ptr, i32, i32, i32, i32, double, i32, i32, i32, ptr, [4 x ptr], [4 x ptr], [4 x ptr], [16 x i8], [16 x i8], [16 x i8], i32, ptr, i32, i32, i32, i32, i32, i32, i32, i32, i32, i8, i8, i8, i16, i16, i32, i32, i32, i32, i32, i32, i32, [4 x ptr], i32, i32, i32, [10 x i32], i32, i32, i32, i32, ptr, ptr, ptr, ptr, ptr, ptr, ptr, ptr, ptr, ptr, i32 }
%struct.jpeg_decompress_struct = type { ptr, ptr, ptr, ptr, i32, i32, ptr, i32, i32, i32, i32, i32, i32, i32, double, i32, i32, i32, i32, i32, i32, i32, i32, i32, i32, i32, i32, i32, i32, i32, i32, i32, i32, ptr, i32, i32, i32, i32, i32, ptr, [4 x ptr], [4 x ptr], [4 x ptr], i32, ptr, i32, i32, [16 x i8], [16 x i8], [16 x i8], i32, i32, i8, i8, i8, i16, i16, i32, i8, i32, ptr, i32, i32, i32, i32, ptr, i32, [4 x ptr], i32, i32, i32, [10 x i32], i32, i32, i32, i32, i32, ptr, ptr, ptr, ptr, ptr, ptr, ptr, ptr, ptr, ptr, ptr }
%struct.my_error_mgr = type { %struct.jpeg_error_mgr, [1 x %struct.__jmp_buf_tag], ptr, i32, i32 }
%struct.jpeg_error_mgr = type { ptr, ptr, ptr, ptr, ptr, i32, %union.anon, i32, i64, ptr, i32, ptr, i32, i32 }
%union.anon = type { [8 x i32], [48 x i8] }
%struct.__jmp_buf_tag = type { [8 x i64], i32, %struct.__sigset_t }
%struct.__sigset_t = type { [16 x i64] }
%struct.jpeg_decomp_master = type { ptr, ptr, i32, i32, i32, i32, [10 x i32], [10 x i32], i32, i32, ptr }

@.str = private unnamed_addr constant [9 x i8] c"%s(): %s\00", align 1
@.str.1 = private unnamed_addr constant [17 x i8] c"Invalid argument\00", align 1
@.str.4 = private unnamed_addr constant [21 x i8] c"%s(): Invalid handle\00", align 1
@.str.35 = private unnamed_addr constant [52 x i8] c"Instance has not been initialized for decompression\00", align 1
@tj3DecompressHeader.FUNCTION_NAME = internal constant [20 x i8] c"tj3DecompressHeader\00", align 16
@.str.58 = private unnamed_addr constant [45 x i8] c"Could not determine colorspace of JPEG image\00", align 1
@.str.59 = private unnamed_addr constant [32 x i8] c"Invalid data returned in header\00", align 1

; Function Attrs: nounwind uwtable
define internal void @setDecompParameters(ptr noundef %0) #0 {
  %2 = alloca ptr, align 8
  store ptr %0, ptr %2, align 8
  %3 = load ptr, ptr %2, align 8
  %4 = getelementptr inbounds %struct._tjinstance, ptr %3, i32 0, i32 1
  %5 = call i32 @getSubsamp(ptr noundef %4)
  %6 = load ptr, ptr %2, align 8
  %7 = getelementptr inbounds %struct._tjinstance, ptr %6, i32 0, i32 9
  store i32 %5, ptr %7, align 4
  %8 = load ptr, ptr %2, align 8
  %9 = getelementptr inbounds %struct._tjinstance, ptr %8, i32 0, i32 1
  %10 = getelementptr inbounds %struct.jpeg_decompress_struct, ptr %9, i32 0, i32 7
  %11 = load i32, ptr %10, align 8
  %12 = load ptr, ptr %2, align 8
  %13 = getelementptr inbounds %struct._tjinstance, ptr %12, i32 0, i32 10
  store i32 %11, ptr %13, align 8
  %14 = load ptr, ptr %2, align 8
  %15 = getelementptr inbounds %struct._tjinstance, ptr %14, i32 0, i32 1
  %16 = getelementptr inbounds %struct.jpeg_decompress_struct, ptr %15, i32 0, i32 8
  %17 = load i32, ptr %16, align 4
  %18 = load ptr, ptr %2, align 8
  %19 = getelementptr inbounds %struct._tjinstance, ptr %18, i32 0, i32 11
  store i32 %17, ptr %19, align 4
  %20 = load ptr, ptr %2, align 8
  %21 = getelementptr inbounds %struct._tjinstance, ptr %20, i32 0, i32 1
  %22 = getelementptr inbounds %struct.jpeg_decompress_struct, ptr %21, i32 0, i32 43
  %23 = load i32, ptr %22, align 8
  %24 = load ptr, ptr %2, align 8
  %25 = getelementptr inbounds %struct._tjinstance, ptr %24, i32 0, i32 12
  store i32 %23, ptr %25, align 8
  %26 = load ptr, ptr %2, align 8
  %27 = getelementptr inbounds %struct._tjinstance, ptr %26, i32 0, i32 1
  %28 = getelementptr inbounds %struct.jpeg_decompress_struct, ptr %27, i32 0, i32 10
  %29 = load i32, ptr %28, align 4
  switch i32 %29, label %45 [
    i32 1, label %30
    i32 2, label %33
    i32 3, label %36
    i32 4, label %39
    i32 5, label %42
  ]

30:                                               ; preds = %1
  %31 = load ptr, ptr %2, align 8
  %32 = getelementptr inbounds %struct._tjinstance, ptr %31, i32 0, i32 13
  store i32 2, ptr %32, align 4
  br label %48

33:                                               ; preds = %1
  %34 = load ptr, ptr %2, align 8
  %35 = getelementptr inbounds %struct._tjinstance, ptr %34, i32 0, i32 13
  store i32 0, ptr %35, align 4
  br label %48

36:                                               ; preds = %1
  %37 = load ptr, ptr %2, align 8
  %38 = getelementptr inbounds %struct._tjinstance, ptr %37, i32 0, i32 13
  store i32 1, ptr %38, align 4
  br label %48

39:                                               ; preds = %1
  %40 = load ptr, ptr %2, align 8
  %41 = getelementptr inbounds %struct._tjinstance, ptr %40, i32 0, i32 13
  store i32 3, ptr %41, align 4
  br label %48

42:                                               ; preds = %1
  %43 = load ptr, ptr %2, align 8
  %44 = getelementptr inbounds %struct._tjinstance, ptr %43, i32 0, i32 13
  store i32 4, ptr %44, align 4
  br label %48

45:                                               ; preds = %1
  %46 = load ptr, ptr %2, align 8
  %47 = getelementptr inbounds %struct._tjinstance, ptr %46, i32 0, i32 13
  store i32 -1, ptr %47, align 4
  br label %48

48:                                               ; preds = %45, %42, %39, %36, %33, %30
  %49 = load ptr, ptr %2, align 8
  %50 = getelementptr inbounds %struct._tjinstance, ptr %49, i32 0, i32 1
  %51 = getelementptr inbounds %struct.jpeg_decompress_struct, ptr %50, i32 0, i32 45
  %52 = load i32, ptr %51, align 8
  %53 = load ptr, ptr %2, align 8
  %54 = getelementptr inbounds %struct._tjinstance, ptr %53, i32 0, i32 17
  store i32 %52, ptr %54, align 4
  %55 = load ptr, ptr %2, align 8
  %56 = getelementptr inbounds %struct._tjinstance, ptr %55, i32 0, i32 1
  %57 = getelementptr inbounds %struct.jpeg_decompress_struct, ptr %56, i32 0, i32 46
  %58 = load i32, ptr %57, align 4
  %59 = load ptr, ptr %2, align 8
  %60 = getelementptr inbounds %struct._tjinstance, ptr %59, i32 0, i32 19
  store i32 %58, ptr %60, align 4
  %61 = load ptr, ptr %2, align 8
  %62 = getelementptr inbounds %struct._tjinstance, ptr %61, i32 0, i32 1
  %63 = getelementptr inbounds %struct.jpeg_decompress_struct, ptr %62, i32 0, i32 77
  %64 = load ptr, ptr %63, align 8
  %65 = getelementptr inbounds %struct.jpeg_decomp_master, ptr %64, i32 0, i32 3
  %66 = load i32, ptr %65, align 4
  %67 = load ptr, ptr %2, align 8
  %68 = getelementptr inbounds %struct._tjinstance, ptr %67, i32 0, i32 20
  store i32 %66, ptr %68, align 8
  %69 = load ptr, ptr %2, align 8
  %70 = getelementptr inbounds %struct._tjinstance, ptr %69, i32 0, i32 1
  %71 = getelementptr inbounds %struct.jpeg_decompress_struct, ptr %70, i32 0, i32 72
  %72 = load i32, ptr %71, align 4
  %73 = load ptr, ptr %2, align 8
  %74 = getelementptr inbounds %struct._tjinstance, ptr %73, i32 0, i32 21
  store i32 %72, ptr %74, align 4
  %75 = load ptr, ptr %2, align 8
  %76 = getelementptr inbounds %struct._tjinstance, ptr %75, i32 0, i32 1
  %77 = getelementptr inbounds %struct.jpeg_decompress_struct, ptr %76, i32 0, i32 75
  %78 = load i32, ptr %77, align 8
  %79 = load ptr, ptr %2, align 8
  %80 = getelementptr inbounds %struct._tjinstance, ptr %79, i32 0, i32 22
  store i32 %78, ptr %80, align 8
  %81 = load ptr, ptr %2, align 8
  %82 = getelementptr inbounds %struct._tjinstance, ptr %81, i32 0, i32 1
  %83 = getelementptr inbounds %struct.jpeg_decompress_struct, ptr %82, i32 0, i32 55
  %84 = load i16, ptr %83, align 4
  %85 = zext i16 %84 to i32
  %86 = load ptr, ptr %2, align 8
  %87 = getelementptr inbounds %struct._tjinstance, ptr %86, i32 0, i32 25
  store i32 %85, ptr %87, align 4
  %88 = load ptr, ptr %2, align 8
  %89 = getelementptr inbounds %struct._tjinstance, ptr %88, i32 0, i32 1
  %90 = getelementptr inbounds %struct.jpeg_decompress_struct, ptr %89, i32 0, i32 56
  %91 = load i16, ptr %90, align 2
  %92 = zext i16 %91 to i32
  %93 = load ptr, ptr %2, align 8
  %94 = getelementptr inbounds %struct._tjinstance, ptr %93, i32 0, i32 26
  store i32 %92, ptr %94, align 8
  %95 = load ptr, ptr %2, align 8
  %96 = getelementptr inbounds %struct._tjinstance, ptr %95, i32 0, i32 1
  %97 = getelementptr inbounds %struct.jpeg_decompress_struct, ptr %96, i32 0, i32 54
  %98 = load i8, ptr %97, align 2
  %99 = zext i8 %98 to i32
  %100 = load ptr, ptr %2, align 8
  %101 = getelementptr inbounds %struct._tjinstance, ptr %100, i32 0, i32 27
  store i32 %99, ptr %101, align 4
  ret void
}

; Function Attrs: nounwind uwtable
define i32 @tj3DecompressHeader(ptr noundef %0, ptr noundef %1, i64 noundef %2) #0 {
  %4 = alloca i32, align 4
  %5 = alloca ptr, align 8
  %6 = alloca ptr, align 8
  %7 = alloca i64, align 8
  %8 = alloca i32, align 4
  %9 = alloca ptr, align 8
  %10 = alloca ptr, align 8
  store ptr %0, ptr %5, align 8
  store ptr %1, ptr %6, align 8
  store i64 %2, ptr %7, align 8
  store i32 0, ptr %8, align 4
  %11 = load ptr, ptr %5, align 8
  store ptr %11, ptr %9, align 8
  store ptr null, ptr %10, align 8
  %12 = load ptr, ptr %9, align 8
  %13 = icmp ne ptr %12, null
  br i1 %13, label %18, label %14

14:                                               ; preds = %3
  %15 = call align 16 ptr @llvm.threadlocal.address.p0(ptr align 16 @errStr)
  %16 = getelementptr inbounds [200 x i8], ptr %15, i64 0, i64 0
  %17 = call i32 (ptr, i64, ptr, ...) @snprintf(ptr noundef %16, i64 noundef 200, ptr noundef @.str.4, ptr noundef @tj3DecompressHeader.FUNCTION_NAME) #11
  store i32 -1, ptr %4, align 4
  br label %120

18:                                               ; preds = %3
  %19 = load ptr, ptr %9, align 8
  %20 = getelementptr inbounds %struct._tjinstance, ptr %19, i32 0, i32 1
  store ptr %20, ptr %10, align 8
  %21 = load ptr, ptr %9, align 8
  %22 = getelementptr inbounds %struct._tjinstance, ptr %21, i32 0, i32 2
  %23 = getelementptr inbounds %struct.my_error_mgr, ptr %22, i32 0, i32 3
  store i32 0, ptr %23, align 8
  %24 = load ptr, ptr %9, align 8
  %25 = getelementptr inbounds %struct._tjinstance, ptr %24, i32 0, i32 5
  store i32 0, ptr %25, align 4
  %26 = load ptr, ptr %9, align 8
  %27 = getelementptr inbounds %struct._tjinstance, ptr %26, i32 0, i32 3
  %28 = load i32, ptr %27, align 8
  %29 = and i32 %28, 2
  %30 = icmp eq i32 %29, 0
  br i1 %30, label %31, label %41

31:                                               ; preds = %18
  %32 = load ptr, ptr %9, align 8
  %33 = getelementptr inbounds %struct._tjinstance, ptr %32, i32 0, i32 4
  %34 = getelementptr inbounds [200 x i8], ptr %33, i64 0, i64 0
  %35 = call i32 (ptr, i64, ptr, ...) @snprintf(ptr noundef %34, i64 noundef 200, ptr noundef @.str, ptr noundef @tj3DecompressHeader.FUNCTION_NAME, ptr noundef @.str.35) #11
  %36 = load ptr, ptr %9, align 8
  %37 = getelementptr inbounds %struct._tjinstance, ptr %36, i32 0, i32 5
  store i32 1, ptr %37, align 4
  %38 = call align 16 ptr @llvm.threadlocal.address.p0(ptr align 16 @errStr)
  %39 = getelementptr inbounds [200 x i8], ptr %38, i64 0, i64 0
  %40 = call i32 (ptr, i64, ptr, ...) @snprintf(ptr noundef %39, i64 noundef 200, ptr noundef @.str, ptr noundef @tj3DecompressHeader.FUNCTION_NAME, ptr noundef @.str.35) #11
  store i32 -1, ptr %8, align 4
  br label %111

41:                                               ; preds = %18
  %42 = load ptr, ptr %6, align 8
  %43 = icmp eq ptr %42, null
  br i1 %43, label %47, label %44

44:                                               ; preds = %41
  %45 = load i64, ptr %7, align 8
  %46 = icmp ule i64 %45, 0
  br i1 %46, label %47, label %57

47:                                               ; preds = %44, %41
  %48 = load ptr, ptr %9, align 8
  %49 = getelementptr inbounds %struct._tjinstance, ptr %48, i32 0, i32 4
  %50 = getelementptr inbounds [200 x i8], ptr %49, i64 0, i64 0
  %51 = call i32 (ptr, i64, ptr, ...) @snprintf(ptr noundef %50, i64 noundef 200, ptr noundef @.str, ptr noundef @tj3DecompressHeader.FUNCTION_NAME, ptr noundef @.str.1) #11
  %52 = load ptr, ptr %9, align 8
  %53 = getelementptr inbounds %struct._tjinstance, ptr %52, i32 0, i32 5
  store i32 1, ptr %53, align 4
  %54 = call align 16 ptr @llvm.threadlocal.address.p0(ptr align 16 @errStr)
  %55 = getelementptr inbounds [200 x i8], ptr %54, i64 0, i64 0
  %56 = call i32 (ptr, i64, ptr, ...) @snprintf(ptr noundef %55, i64 noundef 200, ptr noundef @.str, ptr noundef @tj3DecompressHeader.FUNCTION_NAME, ptr noundef @.str.1) #11
  store i32 -1, ptr %8, align 4
  br label %111

57:                                               ; preds = %44
  %58 = load ptr, ptr %9, align 8
  %59 = getelementptr inbounds %struct._tjinstance, ptr %58, i32 0, i32 2
  %60 = getelementptr inbounds %struct.my_error_mgr, ptr %59, i32 0, i32 1
  %61 = getelementptr inbounds [1 x %struct.__jmp_buf_tag], ptr %60, i64 0, i64 0
  %62 = call i32 @_setjmp(ptr noundef %61) #13
  %63 = icmp ne i32 %62, 0
  br i1 %63, label %64, label %65

64:                                               ; preds = %57
  store i32 -1, ptr %4, align 4
  br label %120

65:                                               ; preds = %57
  %66 = load ptr, ptr %10, align 8
  %67 = load ptr, ptr %6, align 8
  %68 = load i64, ptr %7, align 8
  call void @jpeg_mem_src_tj(ptr noundef %66, ptr noundef %67, i64 noundef %68)
  %69 = load ptr, ptr %10, align 8
  %70 = call i32 @jpeg_read_header(ptr noundef %69, i32 noundef 0)
  %71 = icmp eq i32 %70, 2
  br i1 %71, label %72, label %73

72:                                               ; preds = %65
  store i32 0, ptr %4, align 4
  br label %120

73:                                               ; preds = %65
  %74 = load ptr, ptr %9, align 8
  call void @setDecompParameters(ptr noundef %74)
  %75 = load ptr, ptr %10, align 8
  call void @jpeg_abort_decompress(ptr noundef %75)
  %76 = load ptr, ptr %9, align 8
  %77 = getelementptr inbounds %struct._tjinstance, ptr %76, i32 0, i32 13
  %78 = load i32, ptr %77, align 4
  %79 = icmp slt i32 %78, 0
  br i1 %79, label %80, label %90

80:                                               ; preds = %73
  %81 = load ptr, ptr %9, align 8
  %82 = getelementptr inbounds %struct._tjinstance, ptr %81, i32 0, i32 4
  %83 = getelementptr inbounds [200 x i8], ptr %82, i64 0, i64 0
  %84 = call i32 (ptr, i64, ptr, ...) @snprintf(ptr noundef %83, i64 noundef 200, ptr noundef @.str, ptr noundef @tj3DecompressHeader.FUNCTION_NAME, ptr noundef @.str.58) #11
  %85 = load ptr, ptr %9, align 8
  %86 = getelementptr inbounds %struct._tjinstance, ptr %85, i32 0, i32 5
  store i32 1, ptr %86, align 4
  %87 = call align 16 ptr @llvm.threadlocal.address.p0(ptr align 16 @errStr)
  %88 = getelementptr inbounds [200 x i8], ptr %87, i64 0, i64 0
  %89 = call i32 (ptr, i64, ptr, ...) @snprintf(ptr noundef %88, i64 noundef 200, ptr noundef @.str, ptr noundef @tj3DecompressHeader.FUNCTION_NAME, ptr noundef @.str.58) #11
  store i32 -1, ptr %8, align 4
  br label %111

90:                                               ; preds = %73
  %91 = load ptr, ptr %9, align 8
  %92 = getelementptr inbounds %struct._tjinstance, ptr %91, i32 0, i32 10
  %93 = load i32, ptr %92, align 8
  %94 = icmp slt i32 %93, 1
  br i1 %94, label %100, label %95

95:                                               ; preds = %90
  %96 = load ptr, ptr %9, align 8
  %97 = getelementptr inbounds %struct._tjinstance, ptr %96, i32 0, i32 11
  %98 = load i32, ptr %97, align 4
  %99 = icmp slt i32 %98, 1
  br i1 %99, label %100, label %110

100:                                              ; preds = %95, %90
  %101 = load ptr, ptr %9, align 8
  %102 = getelementptr inbounds %struct._tjinstance, ptr %101, i32 0, i32 4
  %103 = getelementptr inbounds [200 x i8], ptr %102, i64 0, i64 0
  %104 = call i32 (ptr, i64, ptr, ...) @snprintf(ptr noundef %103, i64 noundef 200, ptr noundef @.str, ptr noundef @tj3DecompressHeader.FUNCTION_NAME, ptr noundef @.str.59) #11
  %105 = load ptr, ptr %9, align 8
  %106 = getelementptr inbounds %struct._tjinstance, ptr %105, i32 0, i32 5
  store i32 1, ptr %106, align 4
  %107 = call align 16 ptr @llvm.threadlocal.address.p0(ptr align 16 @errStr)
  %108 = getelementptr inbounds [200 x i8], ptr %107, i64 0, i64 0
  %109 = call i32 (ptr, i64, ptr, ...) @snprintf(ptr noundef %108, i64 noundef 200, ptr noundef @.str, ptr noundef @tj3DecompressHeader.FUNCTION_NAME, ptr noundef @.str.59) #11
  store i32 -1, ptr %8, align 4
  br label %111

110:                                              ; preds = %95
  br label %111

111:                                              ; preds = %110, %100, %80, %47, %31
  %112 = load ptr, ptr %9, align 8
  %113 = getelementptr inbounds %struct._tjinstance, ptr %112, i32 0, i32 2
  %114 = getelementptr inbounds %struct.my_error_mgr, ptr %113, i32 0, i32 3
  %115 = load i32, ptr %114, align 8
  %116 = icmp ne i32 %115, 0
  br i1 %116, label %117, label %118

117:                                              ; preds = %111
  store i32 -1, ptr %8, align 4
  br label %118

118:                                              ; preds = %117, %111
  %119 = load i32, ptr %8, align 4
  store i32 %119, ptr %4, align 4
  br label %120

120:                                              ; preds = %118, %72, %64, %14
  %121 = load i32, ptr %4, align 4
  ret i32 %121
}