; Function Attrs: nounwind uwtable
define range(i32 -1, 1) i32 @tj3DecompressHeader(ptr noundef %0, ptr noundef %1, i64 noundef %2) local_unnamed_addr #0 {
  %.not = icmp eq ptr %0, null
  br i1 %.not, label %4, label %7

4:                                                ; preds = %3
  %5 = call align 16 ptr @llvm.threadlocal.address.p0(ptr align 16 @errStr)
  %6 = call i32 (ptr, i64, ptr, ...) @snprintf(ptr noundef nonnull dereferenceable(1) %5, i64 noundef 200, ptr noundef nonnull @.str.4, ptr noundef nonnull @tj3DecompressHeader.FUNCTION_NAME) #26
  br label %78

7:                                                ; preds = %3
  %8 = getelementptr inbounds i8, ptr %0, i64 520
  %9 = getelementptr inbounds i8, ptr %0, i64 1528
  store i32 0, ptr %9, align 8
  %10 = getelementptr inbounds i8, ptr %0, i64 1740
  store i32 0, ptr %10, align 4
  %11 = getelementptr inbounds i8, ptr %0, i64 1536
  %12 = load i32, ptr %11, align 8
  %13 = and i32 %12, 2
  %14 = icmp eq i32 %13, 0
  br i1 %14, label %.sink.split, label %15

15:                                               ; preds = %7
  %16 = icmp eq ptr %1, null
  %17 = icmp eq i64 %2, 0
  %or.cond = or i1 %16, %17
  br i1 %or.cond, label %.sink.split, label %18

18:                                               ; preds = %15
  %19 = getelementptr inbounds i8, ptr %0, i64 1320
  %20 = call i32 @_setjmp(ptr noundef nonnull %19) #27
  %.not33 = icmp eq i32 %20, 0
  br i1 %.not33, label %21, label %78

21:                                               ; preds = %18
  call void @jpeg_mem_src_tj(ptr noundef nonnull %8, ptr noundef nonnull %1, i64 noundef %2) #26
  %22 = call i32 @jpeg_read_header(ptr noundef nonnull %8, i32 noundef 0) #26
  %23 = icmp eq i32 %22, 2
  br i1 %23, label %78, label %24

24:                                               ; preds = %21
  %25 = call fastcc i32 @getSubsamp(ptr noundef nonnull %8)
  %26 = getelementptr inbounds i8, ptr %0, i64 1756
  store i32 %25, ptr %26, align 4
  %27 = getelementptr inbounds i8, ptr %0, i64 568
  %28 = getelementptr inbounds i8, ptr %0, i64 1760
  %29 = getelementptr inbounds i8, ptr %0, i64 1764
  %30 = load <2 x i32>, ptr %27, align 8
  store <2 x i32> %30, ptr %28, align 8
  %31 = getelementptr inbounds i8, ptr %0, i64 816
  %32 = load i32, ptr %31, align 8
  %33 = getelementptr inbounds i8, ptr %0, i64 1768
  store i32 %32, ptr %33, align 8
  %34 = getelementptr inbounds i8, ptr %0, i64 580
  %35 = load i32, ptr %34, align 4
  %switch.tableidx = add i32 %35, -1
  %36 = icmp ult i32 %switch.tableidx, 5
  br i1 %36, label %switch.lookup, label %setDecompParameters.exit

switch.lookup:                                    ; preds = %24
  %37 = zext nneg i32 %switch.tableidx to i64
  %switch.gep = getelementptr inbounds [5 x i32], ptr @switch.table.tj3DecompressToYUV8, i64 0, i64 %37
  %switch.load = load i32, ptr %switch.gep, align 4
  br label %setDecompParameters.exit

setDecompParameters.exit:                         ; preds = %24, %switch.lookup
  %.sink.i = phi i32 [ %switch.load, %switch.lookup ], [ -1, %24 ]
  %38 = getelementptr inbounds i8, ptr %0, i64 1772
  store i32 %.sink.i, ptr %38, align 4
  %39 = getelementptr inbounds i8, ptr %0, i64 832
  %40 = load i32, ptr %39, align 8
  %41 = getelementptr inbounds i8, ptr %0, i64 1788
  store i32 %40, ptr %41, align 4
  %42 = getelementptr inbounds i8, ptr %0, i64 836
  %43 = load i32, ptr %42, align 4
  %44 = getelementptr inbounds i8, ptr %0, i64 1796
  store i32 %43, ptr %44, align 4
  %45 = getelementptr inbounds i8, ptr %0, i64 1064
  %46 = load ptr, ptr %45, align 8
  %47 = getelementptr inbounds i8, ptr %46, i64 20
  %48 = load i32, ptr %47, align 4
  %49 = getelementptr inbounds i8, ptr %0, i64 1800
  store i32 %48, ptr %49, align 8
  %50 = getelementptr inbounds i8, ptr %0, i64 1044
  %51 = load i32, ptr %50, align 4
  %52 = getelementptr inbounds i8, ptr %0, i64 1804
  store i32 %51, ptr %52, align 4
  %53 = getelementptr inbounds i8, ptr %0, i64 1056
  %54 = load i32, ptr %53, align 8
  %55 = getelementptr inbounds i8, ptr %0, i64 1808
  store i32 %54, ptr %55, align 8
  %56 = getelementptr inbounds i8, ptr %0, i64 900
  %57 = getelementptr inbounds i8, ptr %0, i64 1820
  %58 = load <2 x i16>, ptr %56, align 4
  %59 = zext <2 x i16> %58 to <2 x i32>
  store <2 x i32> %59, ptr %57, align 4
  %60 = getelementptr inbounds i8, ptr %0, i64 898
  %61 = load i8, ptr %60, align 2
  %62 = zext i8 %61 to i32
  %63 = getelementptr inbounds i8, ptr %0, i64 1828
  store i32 %62, ptr %63, align 4
  call void @jpeg_abort_decompress(ptr noundef nonnull %8) #26
  %64 = load i32, ptr %38, align 4
  %65 = icmp slt i32 %64, 0
  br i1 %65, label %.sink.split, label %66

66:                                               ; preds = %setDecompParameters.exit
  %67 = load i32, ptr %28, align 8
  %68 = icmp slt i32 %67, 1
  br i1 %68, label %.sink.split, label %69

69:                                               ; preds = %66
  %70 = load i32, ptr %29, align 4
  %71 = icmp slt i32 %70, 1
  br i1 %71, label %.sink.split, label %76

.sink.split:                                      ; preds = %66, %69, %setDecompParameters.exit, %15, %7
  %.str.59.sink35 = phi ptr [ @.str.35, %7 ], [ @.str.1, %15 ], [ @.str.58, %setDecompParameters.exit ], [ @.str.59, %69 ], [ @.str.59, %66 ]
  %72 = getelementptr inbounds i8, ptr %0, i64 1540
  %73 = call i32 (ptr, i64, ptr, ...) @snprintf(ptr noundef nonnull dereferenceable(1) %72, i64 noundef 200, ptr noundef nonnull @.str, ptr noundef nonnull @tj3DecompressHeader.FUNCTION_NAME, ptr noundef nonnull %.str.59.sink35) #26
  store i32 1, ptr %10, align 4
  %74 = call align 16 ptr @llvm.threadlocal.address.p0(ptr align 16 @errStr)
  %75 = call i32 (ptr, i64, ptr, ...) @snprintf(ptr noundef nonnull dereferenceable(1) %74, i64 noundef 200, ptr noundef nonnull @.str, ptr noundef nonnull @tj3DecompressHeader.FUNCTION_NAME, ptr noundef nonnull %.str.59.sink35) #26
  br label %76

76:                                               ; preds = %.sink.split, %69
  %.029 = phi i32 [ 0, %69 ], [ -1, %.sink.split ]
  %77 = load i32, ptr %9, align 8
  %.not34 = icmp eq i32 %77, 0
  %spec.select = select i1 %.not34, i32 %.029, i32 -1
  br label %78

78:                                               ; preds = %21, %18, %76, %4
  %.0 = phi i32 [ %spec.select, %76 ], [ -1, %4 ], [ -1, %18 ], [ 0, %21 ]
  ret i32 %.0
}